Certificate:
    Data:
        Version: 3 (0x2)
        Serial Number: 1 (0x1)
    Signature Algorithm: sha256WithRSAEncryption
        Issuer: C=CN, O=Sercomm, CN=RootCA
        Validity
            Not Before: Aug 24 13:24:07 2016 GMT
            Not After : Aug 22 13:24:07 2026 GMT
        Subject: C=CN, O=Sercomm, CN=SecondCA
        Subject Public Key Info:
            Public Key Algorithm: rsaEncryption
                Public-Key: (1024 bit)
                Modulus:
                    00:c6:57:bc:2c:ab:cd:72:24:34:7f:49:ce:02:c8:
                    d8:18:23:bf:ba:66:d0:72:c4:6c:51:02:e4:e9:ff:
                    09:10:77:35:91:49:32:01:c1:e8:6b:b5:b5:db:6c:
                    f8:e6:29:fe:66:db:0e:c3:2f:ee:01:cb:89:90:0f:
                    b7:76:82:c7:a2:b6:27:5e:0a:af:52:eb:c2:c8:e4:
                    7d:47:45:81:26:41:e9:ae:de:ed:25:9a:4c:0f:db:
                    54:88:91:db:81:7a:98:e2:ab:3c:99:54:ff:2a:9f:
                    6b:bc:d7:a2:b3:01:fb:e0:f9:74:4a:43:d2:c0:19:
                    98:4f:6b:9e:34:31:76:89:55
                Exponent: 65537 (0x10001)
        X509v3 extensions:
            X509v3 Basic Constraints: 
                CA:FALSE
            Netscape Comment: 
                OpenSSL Generated Certificate
            X509v3 Subject Key Identifier: 
                5B:77:8E:7F:DA:45:F6:00:E3:4A:02:50:D3:E0:58:45:05:4F:65:07
            X509v3 Authority Key Identifier: 
                keyid:A7:18:0D:5F:EB:A3:0C:6A:94:9C:AD:40:AF:F8:63:02:C6:4B:92:37

    Signature Algorithm: sha256WithRSAEncryption
         b3:74:96:16:ed:90:ed:6e:ca:01:be:7c:bd:cf:1d:42:22:36:
         8c:64:85:47:e8:ec:ed:5f:6c:d7:2e:c5:6b:6f:81:84:d1:8a:
         95:56:e6:01:cb:9e:7f:42:d8:02:38:12:88:9b:b6:82:59:eb:
         e8:61:ed:82:fe:4a:88:97:9d:d5:e2:5d:b8:a8:3e:26:5f:67:
         f2:78:71:dd:4f:99:a4:61:45:4c:76:f1:fd:8e:18:48:7a:75:
         91:02:86:13:e2:75:d3:be:ae:e5:e4:11:ce:83:96:2a:ff:b6:
         fa:83:f0:4d:56:a4:62:0b:3d:09:07:88:6f:44:1f:f4:57:7f:
         8d:8f
-----BEGIN CERTIFICATE-----
MIICUzCCAbygAwIBAgIBATANBgkqhkiG9w0BAQsFADAwMQswCQYDVQQGEwJDTjEQ
MA4GA1UECgwHU2VyY29tbTEPMA0GA1UEAwwGUm9vdENBMB4XDTE2MDgyNDEzMjQw
N1oXDTI2MDgyMjEzMjQwN1owMjELMAkGA1UEBhMCQ04xEDAOBgNVBAoMB1NlcmNv
bW0xETAPBgNVBAMMCFNlY29uZENBMIGfMA0GCSqGSIb3DQEBAQUAA4GNADCBiQKB
gQDGV7wsq81yJDR/Sc4CyNgYI7+6ZtByxGxRAuTp/wkQdzWRSTIBwehrtbXbbPjm
Kf5m2w7DL+4By4mQD7d2gseitideCq9S68LI5H1HRYEmQemu3u0lmkwP21SIkduB
epjiqzyZVP8qn2u816KzAfvg+XRKQ9LAGZhPa540MXaJVQIDAQABo3sweTAJBgNV
HRMEAjAAMCwGCWCGSAGG+EIBDQQfFh1PcGVuU1NMIEdlbmVyYXRlZCBDZXJ0aWZp
Y2F0ZTAdBgNVHQ4EFgQUW3eOf9pF9gDjSgJQ0+BYRQVPZQcwHwYDVR0jBBgwFoAU
pxgNX+ujDGqUnK1Ar/hjAsZLkjcwDQYJKoZIhvcNAQELBQADgYEAs3SWFu2Q7W7K
Ab58vc8dQiI2jGSFR+js7V9s1y7Fa2+BhNGKlVbmAcuef0LYAjgSiJu2glnr6GHt
gv5KiJed1eJduKg+Jl9n8nhx3U+ZpGFFTHbx/Y4YSHp1kQKGE+J1076u5eQRzoOW
Kv+2+oPwTVakYgs9CQeIb0Qf9Fd/jY8=
-----END CERTIFICATE-----
