Certificate:
    Data:
        Version: 3 (0x2)
        Serial Number: 2 (0x2)
    Signature Algorithm: sha256WithRSAEncryption
        Issuer: C=CN, O=Sercomm, CN=RootCA
        Validity
            Not Before: Aug 24 13:41:42 2016 GMT
            Not After : Aug 24 13:41:42 2017 GMT
        Subject: C=CN, O=Sercomm, CN=SecondCA
        Subject Public Key Info:
            Public Key Algorithm: rsaEncryption
                Public-Key: (1024 bit)
                Modulus:
                    00:c1:21:ba:fd:5e:f9:03:47:22:66:de:ff:34:53:
                    d4:6e:30:dd:dc:2b:62:e4:8f:fd:40:3c:26:b1:12:
                    65:36:e0:3e:5c:3e:50:eb:11:81:85:d4:12:49:eb:
                    81:66:ca:0b:b2:fc:7a:ca:02:20:5c:69:67:14:ae:
                    f7:f5:f1:47:7d:f1:52:bf:38:c4:df:8e:29:ff:62:
                    c0:17:53:2e:70:1c:50:83:01:f7:ad:01:d3:f7:3a:
                    96:51:b2:5e:24:1d:07:fe:5a:a0:62:02:c8:e4:67:
                    ff:9d:ca:c4:83:1e:33:e2:d7:7a:de:2c:d2:e3:18:
                    3b:bd:5c:8c:b5:df:91:a3:3b
                Exponent: 65537 (0x10001)
        X509v3 extensions:
            X509v3 Basic Constraints: 
                CA:FALSE
            Netscape Comment: 
                OpenSSL Generated Certificate
            X509v3 Subject Key Identifier: 
                26:91:78:06:7C:EF:87:98:E4:1F:65:23:80:D9:B9:6F:71:35:E7:AC
            X509v3 Authority Key Identifier: 
                keyid:E8:33:F8:CA:02:CC:74:0D:C5:D8:19:45:11:F6:EF:91:54:F8:AE:F1

    Signature Algorithm: sha256WithRSAEncryption
         a4:76:97:8e:26:05:f8:f2:de:e6:21:83:0a:61:ee:2b:84:5b:
         aa:0c:b6:dc:09:b6:e6:32:55:df:12:eb:92:8c:53:17:cf:4b:
         08:69:45:52:5d:b4:a0:09:d2:f4:30:5d:a8:05:6c:2f:f7:be:
         7c:f2:8d:a8:a6:c7:fc:52:c7:c8:51:d9:b3:f8:a2:2a:d5:0c:
         47:ef:b2:a8:ae:f7:21:15:c3:6f:c4:a8:2d:b7:22:0d:73:98:
         3c:e1:35:77:d5:8f:b9:19:39:64:f4:95:a0:5e:52:e6:ef:d8:
         8b:27:52:b1:b9:d7:e3:a0:e6:86:d1:7e:7f:0c:79:3d:17:3c:
         71:c0
-----BEGIN CERTIFICATE-----
MIICUzCCAbygAwIBAgIBAjANBgkqhkiG9w0BAQsFADAwMQswCQYDVQQGEwJDTjEQ
MA4GA1UECgwHU2VyY29tbTEPMA0GA1UEAwwGUm9vdENBMB4XDTE2MDgyNDEzNDE0
MloXDTE3MDgyNDEzNDE0MlowMjELMAkGA1UEBhMCQ04xEDAOBgNVBAoMB1NlcmNv
bW0xETAPBgNVBAMMCFNlY29uZENBMIGfMA0GCSqGSIb3DQEBAQUAA4GNADCBiQKB
gQDBIbr9XvkDRyJm3v80U9RuMN3cK2Lkj/1APCaxEmU24D5cPlDrEYGF1BJJ64Fm
yguy/HrKAiBcaWcUrvf18Ud98VK/OMTfjin/YsAXUy5wHFCDAfetAdP3OpZRsl4k
HQf+WqBiAsjkZ/+dysSDHjPi13reLNLjGDu9XIy135GjOwIDAQABo3sweTAJBgNV
HRMEAjAAMCwGCWCGSAGG+EIBDQQfFh1PcGVuU1NMIEdlbmVyYXRlZCBDZXJ0aWZp
Y2F0ZTAdBgNVHQ4EFgQUJpF4Bnzvh5jkH2UjgNm5b3E156wwHwYDVR0jBBgwFoAU
6DP4ygLMdA3F2BlFEfbvkVT4rvEwDQYJKoZIhvcNAQELBQADgYEApHaXjiYF+PLe
5iGDCmHuK4Rbqgy23Am25jJV3xLrkoxTF89LCGlFUl20oAnS9DBdqAVsL/e+fPKN
qKbH/FLHyFHZs/iiKtUMR++yqK73IRXDb8SoLbciDXOYPOE1d9WPuRk5ZPSVoF5S
5u/YiydSsbnX46DmhtF+fwx5PRc8ccA=
-----END CERTIFICATE-----
