Certificate:
    Data:
        Version: 3 (0x2)
        Serial Number: 3 (0x3)
    Signature Algorithm: sha256WithRSAEncryption
        Issuer: C=CN, O=Sercomm, CN=RootCA
        Validity
            Not Before: Aug 24 13:43:06 2016 GMT
            Not After : Aug 24 13:43:06 2017 GMT
        Subject: C=CN, O=Sercomm, CN=SecondCA
        Subject Public Key Info:
            Public Key Algorithm: rsaEncryption
                Public-Key: (1024 bit)
                Modulus:
                    00:a1:dc:b5:7f:fb:c8:d9:5a:9d:c0:ab:4e:b8:cb:
                    31:2a:24:c8:20:21:e8:2a:8f:6c:55:6b:a8:a1:20:
                    dc:24:ee:d5:c7:51:b8:4c:63:d8:dc:a7:35:cc:64:
                    e4:9f:d6:9a:4e:02:a4:66:b7:eb:c8:e2:73:89:76:
                    d2:9a:bb:e3:c9:a0:4e:b3:bc:a0:95:98:14:7e:a0:
                    19:d0:e0:11:6f:e9:1a:5f:f8:eb:45:30:0e:a7:44:
                    91:ec:a6:f6:b9:24:04:c1:70:cc:ac:01:a2:8c:6e:
                    34:4c:fa:76:10:12:ef:ea:2e:5f:3f:15:e3:c7:67:
                    c3:7e:72:08:e0:78:48:29:d5
                Exponent: 65537 (0x10001)
        X509v3 extensions:
            X509v3 Basic Constraints: 
                CA:FALSE
            Netscape Comment: 
                OpenSSL Generated Certificate
            X509v3 Subject Key Identifier: 
                A5:7E:FA:EC:8E:16:9C:0F:27:35:D1:F0:B9:FB:94:1C:5A:3C:C6:20
            X509v3 Authority Key Identifier: 
                keyid:4B:92:9E:F5:CF:E9:6D:3F:FE:BC:B0:01:4E:24:EC:BB:25:6C:E6:AF

    Signature Algorithm: sha256WithRSAEncryption
         1c:55:04:1d:33:81:fc:e3:b6:ce:65:f5:31:65:db:24:5d:a7:
         3f:d0:e0:85:d3:48:da:6b:93:d7:18:6b:7d:68:8b:70:08:e9:
         4f:3b:1b:ef:02:56:56:22:bf:8a:78:8b:f6:53:1e:03:49:eb:
         49:38:ae:27:8b:ba:e0:27:73:29:11:9d:59:d3:7c:4c:be:2a:
         10:f0:f3:53:ef:2c:5a:4f:2b:9f:69:98:2b:4d:cd:51:08:71:
         7c:88:f0:dc:57:db:23:59:15:6e:ca:d9:51:37:93:73:63:0d:
         e1:5a:a7:55:35:63:2c:2c:18:10:f5:1e:96:da:2b:f9:25:06:
         17:7c
-----BEGIN CERTIFICATE-----
MIICUzCCAbygAwIBAgIBAzANBgkqhkiG9w0BAQsFADAwMQswCQYDVQQGEwJDTjEQ
MA4GA1UECgwHU2VyY29tbTEPMA0GA1UEAwwGUm9vdENBMB4XDTE2MDgyNDEzNDMw
NloXDTE3MDgyNDEzNDMwNlowMjELMAkGA1UEBhMCQ04xEDAOBgNVBAoMB1NlcmNv
bW0xETAPBgNVBAMMCFNlY29uZENBMIGfMA0GCSqGSIb3DQEBAQUAA4GNADCBiQKB
gQCh3LV/+8jZWp3Aq064yzEqJMggIegqj2xVa6ihINwk7tXHUbhMY9jcpzXMZOSf
1ppOAqRmt+vI4nOJdtKau+PJoE6zvKCVmBR+oBnQ4BFv6Rpf+OtFMA6nRJHspva5
JATBcMysAaKMbjRM+nYQEu/qLl8/FePHZ8N+cgjgeEgp1QIDAQABo3sweTAJBgNV
HRMEAjAAMCwGCWCGSAGG+EIBDQQfFh1PcGVuU1NMIEdlbmVyYXRlZCBDZXJ0aWZp
Y2F0ZTAdBgNVHQ4EFgQUpX767I4WnA8nNdHwufuUHFo8xiAwHwYDVR0jBBgwFoAU
S5Ke9c/pbT/+vLABTiTsuyVs5q8wDQYJKoZIhvcNAQELBQADgYEAHFUEHTOB/OO2
zmX1MWXbJF2nP9DghdNI2muT1xhrfWiLcAjpTzsb7wJWViK/iniL9lMeA0nrSTiu
J4u64CdzKRGdWdN8TL4qEPDzU+8sWk8rn2mYK03NUQhxfIjw3FfbI1kVbsrZUTeT
c2MN4VqnVTVjLCwYEPUeltor+SUGF3w=
-----END CERTIFICATE-----
