Certificate:
    Data:
        Version: 3 (0x2)
        Serial Number: 4 (0x4)
    Signature Algorithm: sha256WithRSAEncryption
        Issuer: C=CN, O=Sercomm, CN=RootCA
        Validity
            Not Before: Aug 24 13:51:15 2016 GMT
            Not After : Aug 24 13:51:15 2017 GMT
        Subject: C=CN, O=Sercomm, CN=SecondCA
        Subject Public Key Info:
            Public Key Algorithm: rsaEncryption
                Public-Key: (1024 bit)
                Modulus:
                    00:c0:40:ca:e5:1b:18:ed:e3:dc:b5:3a:e7:ce:1f:
                    00:cc:95:51:e0:2e:b6:10:04:a1:1b:fd:30:d8:4e:
                    9a:e0:58:76:c5:4e:97:9e:77:3c:9c:28:37:86:6a:
                    31:d2:84:b6:28:22:97:7f:45:af:ac:b7:2b:65:e4:
                    01:5b:6d:e4:cc:ef:f5:b6:56:1b:ff:8d:e5:fa:87:
                    e5:d2:0a:e0:f9:23:e7:d5:04:17:07:13:e0:ac:bf:
                    d5:49:ed:9f:29:43:bb:b7:22:de:d2:0a:8a:a3:1f:
                    38:2c:03:f3:bf:d1:46:f8:14:1c:93:b2:55:63:7c:
                    f7:49:b5:01:e2:fe:21:c3:2b
                Exponent: 65537 (0x10001)
        X509v3 extensions:
            X509v3 Basic Constraints: 
                CA:FALSE
            Netscape Comment: 
                OpenSSL Generated Certificate
            X509v3 Subject Key Identifier: 
                C2:86:91:33:B8:F0:32:E3:37:A0:B6:B4:29:7A:1B:4E:97:4D:18:1C
            X509v3 Authority Key Identifier: 
                keyid:31:C6:A8:1B:67:26:DE:27:CE:EE:71:ED:82:21:76:F5:0F:F9:48:B9

    Signature Algorithm: sha256WithRSAEncryption
         91:df:aa:8f:0e:dd:ad:37:4b:6a:f0:e2:1b:d6:6c:1b:a4:04:
         dc:e6:45:1b:ab:74:41:3f:e7:0e:d1:11:b9:9c:f6:e2:7c:0f:
         a1:61:e7:43:10:a4:0b:89:95:16:71:f4:fb:d2:73:d2:f7:fd:
         46:d3:b5:c7:c7:f1:ea:5d:d5:a6:bf:4c:7c:62:0a:0d:b9:74:
         37:62:5d:9a:a5:0a:e6:30:99:7d:8e:ed:53:e1:0e:ef:8a:e3:
         76:8a:ea:fe:96:a7:35:88:3f:ce:76:fb:73:da:6b:d3:dc:e3:
         9a:0a:97:3f:86:19:ec:70:27:27:61:62:dc:23:5f:82:3f:ca:
         5e:69
-----BEGIN CERTIFICATE-----
MIICUzCCAbygAwIBAgIBBDANBgkqhkiG9w0BAQsFADAwMQswCQYDVQQGEwJDTjEQ
MA4GA1UECgwHU2VyY29tbTEPMA0GA1UEAwwGUm9vdENBMB4XDTE2MDgyNDEzNTEx
NVoXDTE3MDgyNDEzNTExNVowMjELMAkGA1UEBhMCQ04xEDAOBgNVBAoMB1NlcmNv
bW0xETAPBgNVBAMMCFNlY29uZENBMIGfMA0GCSqGSIb3DQEBAQUAA4GNADCBiQKB
gQDAQMrlGxjt49y1OufOHwDMlVHgLrYQBKEb/TDYTprgWHbFTpeedzycKDeGajHS
hLYoIpd/Ra+stytl5AFbbeTM7/W2Vhv/jeX6h+XSCuD5I+fVBBcHE+Csv9VJ7Z8p
Q7u3It7SCoqjHzgsA/O/0Ub4FByTslVjfPdJtQHi/iHDKwIDAQABo3sweTAJBgNV
HRMEAjAAMCwGCWCGSAGG+EIBDQQfFh1PcGVuU1NMIEdlbmVyYXRlZCBDZXJ0aWZp
Y2F0ZTAdBgNVHQ4EFgQUwoaRM7jwMuM3oLa0KXobTpdNGBwwHwYDVR0jBBgwFoAU
McaoG2cm3ifO7nHtgiF29Q/5SLkwDQYJKoZIhvcNAQELBQADgYEAkd+qjw7drTdL
avDiG9ZsG6QE3OZFG6t0QT/nDtERuZz24nwPoWHnQxCkC4mVFnH0+9Jz0vf9RtO1
x8fx6l3Vpr9MfGIKDbl0N2JdmqUK5jCZfY7tU+EO74rjdorq/panNYg/znb7c9pr
09zjmgqXP4YZ7HAnJ2Fi3CNfgj/KXmk=
-----END CERTIFICATE-----
