Certificate:
    Data:
        Version: 3 (0x2)
        Serial Number: 5 (0x5)
    Signature Algorithm: sha256WithRSAEncryption
        Issuer: C=CN, O=Sercomm, CN=RootCA
        Validity
            Not Before: Aug 24 13:51:29 2016 GMT
            Not After : Aug 24 13:51:29 2017 GMT
        Subject: C=CN, O=Sercomm, CN=SecondCA
        Subject Public Key Info:
            Public Key Algorithm: rsaEncryption
                Public-Key: (1024 bit)
                Modulus:
                    00:c5:73:75:2e:d7:7a:fd:fd:bb:ed:c9:ea:13:49:
                    00:34:c2:d4:24:c9:99:e2:a0:15:56:54:ed:96:a3:
                    20:bc:ba:2d:c7:4d:69:85:59:f4:75:36:3e:cf:68:
                    bd:fa:51:cc:d4:c6:e3:d8:e9:49:8e:66:8b:1c:44:
                    98:54:f6:e0:37:8a:08:76:de:ca:50:a6:14:de:e2:
                    c0:52:70:fd:af:f4:af:1e:ea:70:d8:6e:bd:5b:7a:
                    02:e7:c2:1b:03:03:d8:42:cf:53:bb:a4:46:98:76:
                    5f:17:10:df:31:5d:ea:3d:3a:ac:19:e9:c8:06:43:
                    29:54:2d:d4:19:f2:ac:f0:63
                Exponent: 65537 (0x10001)
        X509v3 extensions:
            X509v3 Basic Constraints: 
                CA:FALSE
            Netscape Comment: 
                OpenSSL Generated Certificate
            X509v3 Subject Key Identifier: 
                3E:73:89:7A:26:B3:78:25:4D:07:E8:5D:86:44:E9:8F:08:FA:E1:95
            X509v3 Authority Key Identifier: 
                keyid:86:B6:86:FC:13:83:28:33:97:9A:FD:83:04:45:AA:FC:B9:47:E5:AA

    Signature Algorithm: sha256WithRSAEncryption
         07:78:8c:c1:99:86:1a:2f:30:98:bd:63:2c:cc:40:2f:95:b7:
         91:fc:18:e7:c3:ec:7d:ad:23:1c:ab:21:cc:c4:fb:c2:d4:7d:
         38:a0:53:b1:33:6d:8a:4e:57:36:df:c1:5a:bf:a1:83:06:81:
         17:bd:fa:28:d9:9c:45:27:db:e4:af:d2:a2:1f:eb:97:6a:e6:
         61:cb:d5:10:4a:fd:28:68:ad:2a:29:84:2e:d4:1c:2e:09:74:
         69:68:aa:96:a0:a4:6f:46:99:55:ac:22:eb:98:98:54:ac:51:
         93:06:29:24:47:fc:d1:33:3f:64:50:0e:15:76:db:fb:7e:9a:
         7d:8f
-----BEGIN CERTIFICATE-----
MIICUzCCAbygAwIBAgIBBTANBgkqhkiG9w0BAQsFADAwMQswCQYDVQQGEwJDTjEQ
MA4GA1UECgwHU2VyY29tbTEPMA0GA1UEAwwGUm9vdENBMB4XDTE2MDgyNDEzNTEy
OVoXDTE3MDgyNDEzNTEyOVowMjELMAkGA1UEBhMCQ04xEDAOBgNVBAoMB1NlcmNv
bW0xETAPBgNVBAMMCFNlY29uZENBMIGfMA0GCSqGSIb3DQEBAQUAA4GNADCBiQKB
gQDFc3Uu13r9/bvtyeoTSQA0wtQkyZnioBVWVO2WoyC8ui3HTWmFWfR1Nj7PaL36
UczUxuPY6UmOZoscRJhU9uA3igh23spQphTe4sBScP2v9K8e6nDYbr1begLnwhsD
A9hCz1O7pEaYdl8XEN8xXeo9OqwZ6cgGQylULdQZ8qzwYwIDAQABo3sweTAJBgNV
HRMEAjAAMCwGCWCGSAGG+EIBDQQfFh1PcGVuU1NMIEdlbmVyYXRlZCBDZXJ0aWZp
Y2F0ZTAdBgNVHQ4EFgQUPnOJeiazeCVNB+hdhkTpjwj64ZUwHwYDVR0jBBgwFoAU
hraG/BODKDOXmv2DBEWq/LlH5aowDQYJKoZIhvcNAQELBQADgYEAB3iMwZmGGi8w
mL1jLMxAL5W3kfwY58Psfa0jHKshzMT7wtR9OKBTsTNtik5XNt/BWr+hgwaBF736
KNmcRSfb5K/Soh/rl2rmYcvVEEr9KGitKimELtQcLgl0aWiqlqCkb0aZVawi65iY
VKxRkwYpJEf80TM/ZFAOFXbb+36afY8=
-----END CERTIFICATE-----
