Certificate:
    Data:
        Version: 3 (0x2)
        Serial Number: 6 (0x6)
    Signature Algorithm: sha256WithRSAEncryption
        Issuer: C=CN, O=Sercomm, CN=RootCA
        Validity
            Not Before: Aug 24 13:51:40 2016 GMT
            Not After : Aug 24 13:51:40 2017 GMT
        Subject: C=CN, O=Sercomm, CN=SecondCA
        Subject Public Key Info:
            Public Key Algorithm: rsaEncryption
                Public-Key: (1024 bit)
                Modulus:
                    00:e6:df:d2:53:1d:a6:d3:1f:cb:e8:1b:f9:c5:9c:
                    8e:14:15:75:03:04:56:1a:54:aa:4a:56:d8:81:73:
                    a9:3c:1f:60:a5:bd:99:3f:e5:48:49:f1:ca:4b:bc:
                    15:86:e4:e3:52:fe:26:bf:81:07:2c:26:b5:b2:b8:
                    d6:99:2d:65:08:28:e9:d2:35:d9:1e:a9:1b:5e:6d:
                    47:92:c7:90:27:c1:ff:f2:ec:c1:1a:78:92:f3:02:
                    66:7e:d1:6e:4f:cd:0d:3c:76:70:71:c4:22:b6:88:
                    e5:f0:f3:18:05:ff:fd:cb:6f:ff:48:6a:d3:8e:2b:
                    ef:39:78:89:22:23:21:4d:cd
                Exponent: 65537 (0x10001)
        X509v3 extensions:
            X509v3 Basic Constraints: 
                CA:FALSE
            Netscape Comment: 
                OpenSSL Generated Certificate
            X509v3 Subject Key Identifier: 
                C3:16:20:6F:4E:37:B5:C4:8C:B5:EA:27:E2:B1:62:E7:1F:96:1D:C0
            X509v3 Authority Key Identifier: 
                keyid:77:5E:6E:F6:03:D2:73:C9:F9:59:46:F6:E6:03:9A:72:B4:0A:BA:7D

    Signature Algorithm: sha256WithRSAEncryption
         94:2f:53:5a:a0:df:eb:c2:23:c2:6c:3f:64:db:12:2e:5d:0f:
         96:80:15:ac:e3:62:66:03:ae:30:f4:3f:48:7b:e4:e3:45:93:
         3f:3c:d8:27:a0:1b:33:60:69:bc:57:bb:15:f5:16:bf:f5:25:
         0a:40:f1:2a:94:59:f0:a2:62:83:ee:98:ac:c0:e2:6b:b3:00:
         c4:40:92:c5:3c:56:da:6b:d5:69:20:5d:18:fe:56:fe:e3:cb:
         58:47:ab:e4:77:64:d4:9d:7e:c4:0f:18:f0:e0:7b:81:c7:9f:
         3a:5f:78:c6:81:91:1e:cb:ad:27:2e:0f:05:0d:2f:9a:6d:52:
         e7:1c
-----BEGIN CERTIFICATE-----
MIICUzCCAbygAwIBAgIBBjANBgkqhkiG9w0BAQsFADAwMQswCQYDVQQGEwJDTjEQ
MA4GA1UECgwHU2VyY29tbTEPMA0GA1UEAwwGUm9vdENBMB4XDTE2MDgyNDEzNTE0
MFoXDTE3MDgyNDEzNTE0MFowMjELMAkGA1UEBhMCQ04xEDAOBgNVBAoMB1NlcmNv
bW0xETAPBgNVBAMMCFNlY29uZENBMIGfMA0GCSqGSIb3DQEBAQUAA4GNADCBiQKB
gQDm39JTHabTH8voG/nFnI4UFXUDBFYaVKpKVtiBc6k8H2ClvZk/5UhJ8cpLvBWG
5ONS/ia/gQcsJrWyuNaZLWUIKOnSNdkeqRtebUeSx5Anwf/y7MEaeJLzAmZ+0W5P
zQ08dnBxxCK2iOXw8xgF//3Lb/9IatOOK+85eIkiIyFNzQIDAQABo3sweTAJBgNV
HRMEAjAAMCwGCWCGSAGG+EIBDQQfFh1PcGVuU1NMIEdlbmVyYXRlZCBDZXJ0aWZp
Y2F0ZTAdBgNVHQ4EFgQUwxYgb043tcSMteon4rFi5x+WHcAwHwYDVR0jBBgwFoAU
d15u9gPSc8n5WUb25gOacrQKun0wDQYJKoZIhvcNAQELBQADgYEAlC9TWqDf68Ij
wmw/ZNsSLl0PloAVrONiZgOuMPQ/SHvk40WTPzzYJ6AbM2BpvFe7FfUWv/UlCkDx
KpRZ8KJig+6YrMDia7MAxECSxTxW2mvVaSBdGP5W/uPLWEer5Hdk1J1+xA8Y8OB7
gcefOl94xoGRHsutJy4PBQ0vmm1S5xw=
-----END CERTIFICATE-----
